(dp0
S'recv_socket'
p1
I0
sS'create_open_file'
p2
I1
sS'sleep'
p3
I2
sS'open_scmanager'
p4
I3
sS'load_driver'
p5
I4
sS'get_host_by_addr'
p6
I5
sS'create_interface'
p7
I6
sS'create_mutex'
p8
I7
sS'logon_as_user'
p9
I64
sS'enum_items'
p10
I9
sS'get_computer_name'
p11
I10
sS'read_value'
p12
I11
sS'open_service'
p13
I12
sS'change_service_config'
p14
I13
sS'copy_file'
p15
I14
sS'exit_windows'
p16
I15
sS'connect_share'
p17
I16
sS'enum_modules'
p18
I17
sS'bind_socket'
p19
I18
sS'enum_keys'
p20
I19
sS'delete_value'
p21
I20
sS'enum_types'
p22
I81
sS'write_value'
p23
I22
sS'add_share'
p24
I23
sS'send_socket'
p25
I24
sS'dump_line'
p26
I25
sS'unload_driver'
p27
I26
sS'enum_values'
p28
I21
sS'thread'
p29
I27
sS'load_dll'
p30
I28
sS'create_window'
p31
I29
sS'read_section_names'
p32
I30
sS'com_create_instance'
p33
I31
sS'message'
p34
I60
sS'get_userinfo'
p35
I33
sS'get_file_attributes'
p36
I34
sS'find_file'
p37
I35
sS'open_file'
p38
I36
sS'get_username'
p39
I37
sS'create_service'
p40
I38
sS'query_value'
p41
I39
sS'create_file'
p42
I40
sS'move_file'
p43
I41
sS'open_key'
p44
I42
sS'create_socket'
p45
I43
sS'vm_write'
p46
I44
sS'delete_file'
p47
I45
sS'create_process_as_user'
p48
I46
sS'get_system_time'
p49
I47
sS'create_mailslot'
p50
I48
sS'com_createole_object'
p51
I49
sS'listen_socket'
p52
I50
sS'enum_share'
p53
I51
sS'open_mutex'
p54
I52
sS'vm_protect'
p55
I53
sS'vm_mapviewofsection'
p56
I100
sS'get_windows_directory'
p57
I55
sS'enum_processes'
p58
I56
sS'open_url'
p59
I57
sS'download_file'
p60
I58
sS'com_get_class_object'
p61
I59
sS'kill_process'
p62
I32
sS'load_image'
p63
I61
sS'delete_share'
p64
I62
sS'create_process'
p65
I63
sS'get_system_directory'
p66
I65
sS'set_thread_context'
p67
I66
sS'create_process_nt'
p68
I67
sS'find_window'
p69
I68
sS'vm_allocate'
p70
I69
sS'enum_handles'
p71
I70
sS'connect_socket'
p72
I71
sS'set_file_time'
p73
I72
sS'start_service'
p74
I73
sS'create_thread_remote'
p75
I74
sS'show_window'
p76
I75
sS'open_process'
p77
I76
sS'impersonate_user'
p78
I77
sS'set_value'
p79
I8
sS'connect'
p80
I78
sS'enum_services'
p81
I79
sS'process'
p82
I80
sS'vm_read'
p83
I82
sS'check_for_debugger'
p84
I83
sS'query_keyinfo'
p85
I84
sS'delete_service'
p86
I85
sS'read_section'
p87
I86
sS'enum_window'
p88
I87
sS'set_system_time'
p89
I88
sS'add_netjob'
p90
I89
sS'ping'
p91
I90
sS'set_windows_hook'
p92
I91
sS'control_service'
p93
I92
sS'accept_socket'
p94
I93
sS'trimmed_bytes'
p95
I94
sS'download_file_to_cache'
p96
I95
sS'destroy_window'
p97
I96
sS'get_host_by_name'
p98
I97
sS'set_file_attributes'
p99
I98
sS'revert_to_self'
p100
I99
sS'create_key'
p101
I54
sS'create_thread'
p102
I101
sS'enum_subtypes'
p103
I102
sS'delete_key'
p104
I103
sS'create_directory'
p105
I104
sS'remove_directory'
p106
I105
sS'create_namedpipe'
p107
I106
s.