(dp0
I0
S'recv_socket'
p1
sI1
S'create_open_file'
p2
sI2
S'sleep'
p3
sI3
S'open_scmanager'
p4
sI4
S'load_driver'
p5
sI5
S'get_host_by_addr'
p6
sI6
S'create_interface'
p7
sI7
S'create_mutex'
p8
sI8
S'set_value'
p9
sI9
S'enum_items'
p10
sI10
S'get_computer_name'
p11
sI11
S'read_value'
p12
sI12
S'open_service'
p13
sI13
S'change_service_config'
p14
sI14
S'copy_file'
p15
sI15
S'exit_windows'
p16
sI16
S'connect_share'
p17
sI17
S'enum_modules'
p18
sI18
S'bind_socket'
p19
sI19
S'enum_keys'
p20
sI20
S'delete_value'
p21
sI21
S'enum_values'
p22
sI22
S'write_value'
p23
sI23
S'add_share'
p24
sI24
S'send_socket'
p25
sI25
S'dump_line'
p26
sI26
S'unload_driver'
p27
sI27
S'thread'
p28
sI28
S'load_dll'
p29
sI29
S'create_window'
p30
sI30
S'read_section_names'
p31
sI31
S'com_create_instance'
p32
sI32
S'kill_process'
p33
sI33
S'get_userinfo'
p34
sI34
S'get_file_attributes'
p35
sI35
S'find_file'
p36
sI36
S'open_file'
p37
sI37
S'get_username'
p38
sI38
S'create_service'
p39
sI39
S'query_value'
p40
sI40
S'create_file'
p41
sI41
S'move_file'
p42
sI42
S'open_key'
p43
sI43
S'create_socket'
p44
sI44
S'vm_write'
p45
sI45
S'delete_file'
p46
sI46
S'create_process_as_user'
p47
sI47
S'get_system_time'
p48
sI48
S'create_mailslot'
p49
sI49
S'com_createole_object'
p50
sI50
S'listen_socket'
p51
sI51
S'enum_share'
p52
sI52
S'open_mutex'
p53
sI53
S'vm_protect'
p54
sI54
S'create_key'
p55
sI55
S'get_windows_directory'
p56
sI56
S'enum_processes'
p57
sI57
S'open_url'
p58
sI58
S'download_file'
p59
sI59
S'com_get_class_object'
p60
sI60
S'message'
p61
sI61
S'load_image'
p62
sI62
S'delete_share'
p63
sI63
S'create_process'
p64
sI64
S'logon_as_user'
p65
sI65
S'get_system_directory'
p66
sI66
S'set_thread_context'
p67
sI67
S'create_process_nt'
p68
sI68
S'find_window'
p69
sI69
S'vm_allocate'
p70
sI70
S'enum_handles'
p71
sI71
S'connect_socket'
p72
sI72
S'set_file_time'
p73
sI73
S'start_service'
p74
sI74
S'create_thread_remote'
p75
sI75
S'show_window'
p76
sI76
S'open_process'
p77
sI77
S'impersonate_user'
p78
sI78
S'connect'
p79
sI79
S'enum_services'
p80
sI80
S'process'
p81
sI81
S'enum_types'
p82
sI82
S'vm_read'
p83
sI83
S'check_for_debugger'
p84
sI84
S'query_keyinfo'
p85
sI85
S'delete_service'
p86
sI86
S'read_section'
p87
sI87
S'enum_window'
p88
sI88
S'set_system_time'
p89
sI89
S'add_netjob'
p90
sI90
S'ping'
p91
sI91
S'set_windows_hook'
p92
sI92
S'control_service'
p93
sI93
S'accept_socket'
p94
sI94
S'trimmed_bytes'
p95
sI95
S'download_file_to_cache'
p96
sI96
S'destroy_window'
p97
sI97
S'get_host_by_name'
p98
sI98
S'set_file_attributes'
p99
sI99
S'revert_to_self'
p100
sI100
S'vm_mapviewofsection'
p101
sI101
S'create_thread'
p102
sI102
S'enum_subtypes'
p103
sI103
S'delete_key'
p104
sI104
S'create_directory'
p105
sI105
S'remove_directory'
p106
sI106
S'create_namedpipe'
p107
s.